target datalayout = "e-m:e-p270:32:32-p271:32:32-p272:64:64-i64:64-i128:128-f80:128-n8:16:32:64-S128"
target triple = "x86_64-pc-linux-gnu"

%struct.H5P_genclass_t = type { ptr, ptr, i32, i64, i32, i32, i32, i8, i32, ptr, ptr, ptr, ptr, ptr, ptr, ptr }
%struct.H5P_genprop_t = type { ptr, i64, ptr, i32, i8, ptr, ptr, ptr, ptr, ptr, ptr, ptr, ptr, ptr }

@H5P_init_g = external global i8, align 1
@H5_libterm_g = external global i8, align 1
@.str.7 = private unnamed_addr constant [100 x i8] c"generated/home/dtcxzyw/WorkSpace/Projects/compilers/llvm-opt-benchmark/bench/hdf5/hdf5/src/H5Pint.c\00", align 1
@H5E_PLIST_g = external global i64, align 8
@H5E_NOTFOUND_g = external global i64, align 8
@__func__.H5P__class_get = private unnamed_addr constant [15 x i8] c"H5P__class_get\00", align 1
@.str.48 = private unnamed_addr constant [23 x i8] c"property doesn't exist\00", align 1
@H5E_BADVALUE_g = external global i64, align 8
@.str.49 = private unnamed_addr constant [23 x i8] c"property has zero size\00", align 1

; Function Attrs: nounwind uwtable
define i32 @H5P__class_get(ptr noundef %0, ptr noundef %1, ptr noundef %2) #0 {
  %4 = alloca ptr, align 8
  %5 = alloca ptr, align 8
  %6 = alloca ptr, align 8
  %7 = alloca ptr, align 8
  %8 = alloca i32, align 4
  %9 = alloca i8, align 1
  store ptr %0, ptr %4, align 8, !tbaa !22
  store ptr %1, ptr %5, align 8, !tbaa !39
  store ptr %2, ptr %6, align 8, !tbaa !40
  call void @llvm.lifetime.start.p0(i64 8, ptr %7) #8
  call void @llvm.lifetime.start.p0(i64 4, ptr %8) #8
  store i32 0, ptr %8, align 4, !tbaa !3
  call void @llvm.lifetime.start.p0(i64 1, ptr %9) #8
  store i8 0, ptr %9, align 1, !tbaa !7
  %10 = load i8, ptr @H5P_init_g, align 1, !tbaa !7, !range !9, !noundef !10
  %11 = trunc i8 %10 to i1
  br i1 %11, label %16, label %12

12:                                               ; preds = %3
  %13 = load i8, ptr @H5_libterm_g, align 1, !tbaa !7, !range !9, !noundef !10
  %14 = trunc i8 %13 to i1
  %15 = xor i1 %14, true
  br label %16

16:                                               ; preds = %12, %3
  %17 = phi i1 [ true, %3 ], [ %15, %12 ]
  %18 = xor i1 %17, true
  %19 = xor i1 %18, true
  %20 = zext i1 %19 to i32
  %21 = sext i32 %20 to i64
  %22 = call i64 @llvm.expect.i64(i64 %21, i64 1)
  %23 = icmp ne i64 %22, 0
  br i1 %23, label %24, label %83

24:                                               ; preds = %16
  %25 = load ptr, ptr %4, align 8, !tbaa !22
  %26 = getelementptr inbounds nuw %struct.H5P_genclass_t, ptr %25, i32 0, i32 9
  %27 = load ptr, ptr %26, align 8, !tbaa !52
  %28 = load ptr, ptr %5, align 8, !tbaa !39
  %29 = call ptr @H5SL_search(ptr noundef %27, ptr noundef %28)
  store ptr %29, ptr %7, align 8, !tbaa !68
  %30 = icmp eq ptr null, %29
  br i1 %30, label %31, label %50

31:                                               ; preds = %24
  br label %32

32:                                               ; preds = %31
  br label %33

33:                                               ; preds = %32
  br label %34

34:                                               ; preds = %33
  %35 = load i64, ptr @H5E_PLIST_g, align 8, !tbaa !11
  %36 = load i64, ptr @H5E_NOTFOUND_g, align 8, !tbaa !11
  %37 = call i32 (ptr, ptr, i32, i64, i64, ptr, ...) @H5E_printf_stack(ptr noundef @.str.7, ptr noundef @__func__.H5P__class_get, i32 noundef 3297, i64 noundef %35, i64 noundef %36, ptr noundef @.str.48)
  br label %38

38:                                               ; preds = %34
  br label %39

39:                                               ; preds = %38
  store i8 1, ptr %9, align 1, !tbaa !7
  %40 = load i8, ptr %9, align 1, !tbaa !7, !range !9, !noundef !10
  %41 = trunc i8 %40 to i1
  %42 = zext i1 %41 to i8
  store i8 %42, ptr %9, align 1, !tbaa !7
  br label %43

43:                                               ; preds = %39
  br label %44

44:                                               ; preds = %43
  br label %45

45:                                               ; preds = %44
  store i32 -1, ptr %8, align 4, !tbaa !3
  br label %82

46:                                               ; No predecessors!
  br label %47

47:                                               ; preds = %46
  br label %48

48:                                               ; preds = %47
  br label %49

49:                                               ; preds = %48
  br label %50

50:                                               ; preds = %49, %24
  %51 = load ptr, ptr %7, align 8, !tbaa !68
  %52 = getelementptr inbounds nuw %struct.H5P_genprop_t, ptr %51, i32 0, i32 1
  %53 = load i64, ptr %52, align 8, !tbaa !76
  %54 = icmp eq i64 0, %53
  br i1 %54, label %55, label %74

55:                                               ; preds = %50
  br label %56

56:                                               ; preds = %55
  br label %57

57:                                               ; preds = %56
  br label %58

58:                                               ; preds = %57
  %59 = load i64, ptr @H5E_PLIST_g, align 8, !tbaa !11
  %60 = load i64, ptr @H5E_BADVALUE_g, align 8, !tbaa !11
  %61 = call i32 (ptr, ptr, i32, i64, i64, ptr, ...) @H5E_printf_stack(ptr noundef @.str.7, ptr noundef @__func__.H5P__class_get, i32 noundef 3301, i64 noundef %59, i64 noundef %60, ptr noundef @.str.49)
  br label %62

62:                                               ; preds = %58
  br label %63

63:                                               ; preds = %62
  store i8 1, ptr %9, align 1, !tbaa !7
  %64 = load i8, ptr %9, align 1, !tbaa !7, !range !9, !noundef !10
  %65 = trunc i8 %64 to i1
  %66 = zext i1 %65 to i8
  store i8 %66, ptr %9, align 1, !tbaa !7
  br label %67

67:                                               ; preds = %63
  br label %68

68:                                               ; preds = %67
  br label %69

69:                                               ; preds = %68
  store i32 -1, ptr %8, align 4, !tbaa !3
  br label %82

70:                                               ; No predecessors!
  br label %71

71:                                               ; preds = %70
  br label %72

72:                                               ; preds = %71
  br label %73

73:                                               ; preds = %72
  br label %74

74:                                               ; preds = %73, %50
  %75 = load ptr, ptr %6, align 8, !tbaa !40
  %76 = load ptr, ptr %7, align 8, !tbaa !68
  %77 = getelementptr inbounds nuw %struct.H5P_genprop_t, ptr %76, i32 0, i32 2
  %78 = load ptr, ptr %77, align 8, !tbaa !75
  %79 = load ptr, ptr %7, align 8, !tbaa !68
  %80 = getelementptr inbounds nuw %struct.H5P_genprop_t, ptr %79, i32 0, i32 1
  %81 = load i64, ptr %80, align 8, !tbaa !76
  call void @llvm.memcpy.p0.p0.i64(ptr align 1 %75, ptr align 1 %78, i64 %81, i1 false)
  br label %82

82:                                               ; preds = %74, %69, %45
  br label %83

83:                                               ; preds = %82, %16
  %84 = load i32, ptr %8, align 4, !tbaa !3
  call void @llvm.lifetime.end.p0(i64 1, ptr %9) #8
  call void @llvm.lifetime.end.p0(i64 4, ptr %8) #8
  call void @llvm.lifetime.end.p0(i64 8, ptr %7) #8
  ret i32 %84
}